target datalayout = "e-m:e-p270:32:32-p271:32:32-p272:64:64-i64:64-i128:128-f80:128-n8:16:32:64-S128"
target triple = "x86_64-pc-linux-gnu"

@MainLWLockArray = dso_local global ptr null, align 8
@.str.1 = private unnamed_addr constant [9 x i8] c"lwlock.c\00", align 1
@ShmemLock = external global ptr, align 8
@__func__.LWLockNewTrancheId = private unnamed_addr constant [19 x i8] c"LWLockNewTrancheId\00", align 1

; Function Attrs: inlinehint nounwind uwtable
define internal i32 @tas(ptr noundef %0) #5 {
  %2 = alloca ptr, align 8
  %3 = alloca i8, align 1
  store ptr %0, ptr %2, align 8
  call void @llvm.lifetime.start.p0(i64 1, ptr %3) #9
  store i8 1, ptr %3, align 1
  %4 = load i8, ptr %3, align 1
  %5 = load ptr, ptr %2, align 8
  %6 = call i8 asm sideeffect "\09lock\09\09\09\0A\09xchgb\09$0,$1\09\0A", "=q,=*m,0,*m,~{memory},~{cc},~{dirflag},~{fpsr},~{flags}"(ptr elementtype(i8) %5, i8 %4, ptr elementtype(i8) %5) #9, !srcloc !18
  store i8 %6, ptr %3, align 1
  %7 = load i8, ptr %3, align 1
  %8 = zext i8 %7 to i32
  call void @llvm.lifetime.end.p0(i64 1, ptr %3) #9
  ret i32 %8
}

; Function Attrs: nounwind uwtable
define dso_local i32 @LWLockNewTrancheId() #0 {
  %1 = alloca i32, align 4
  %2 = alloca ptr, align 8
  call void @llvm.lifetime.start.p0(i64 4, ptr %1) #9
  call void @llvm.lifetime.start.p0(i64 8, ptr %2) #9
  %3 = load ptr, ptr @MainLWLockArray, align 8
  %4 = getelementptr inbounds i8, ptr %3, i64 -4
  store ptr %4, ptr %2, align 8
  %5 = load ptr, ptr @ShmemLock, align 8
  %6 = call i32 @tas(ptr noundef %5)
  %7 = icmp ne i32 %6, 0
  br i1 %7, label %8, label %11

8:                                                ; preds = %0
  %9 = load ptr, ptr @ShmemLock, align 8
  %10 = call i32 @s_lock(ptr noundef %9, ptr noundef @.str.1, i32 noundef 610, ptr noundef @__func__.LWLockNewTrancheId)
  br label %12

11:                                               ; preds = %0
  br label %12

12:                                               ; preds = %11, %8
  %13 = load ptr, ptr %2, align 8
  %14 = load i32, ptr %13, align 4
  %15 = add i32 %14, 1
  store i32 %15, ptr %13, align 4
  store i32 %14, ptr %1, align 4
  br label %16

16:                                               ; preds = %12
  call void asm sideeffect "", "~{memory},~{dirflag},~{fpsr},~{flags}"() #9, !srcloc !17
  %17 = load ptr, ptr @ShmemLock, align 8
  store i8 0, ptr %17, align 1
  br label %18

18:                                               ; preds = %16
  br label %19

19:                                               ; preds = %18
  %20 = load i32, ptr %1, align 4
  call void @llvm.lifetime.end.p0(i64 8, ptr %2) #9
  call void @llvm.lifetime.end.p0(i64 4, ptr %1) #9
  ret i32 %20
}