; Function Attrs: nounwind uwtable
define dso_local i32 @LWLockNewTrancheId() local_unnamed_addr #0 {
  %1 = load ptr, ptr @MainLWLockArray, align 8
  %2 = load ptr, ptr @ShmemLock, align 8
  %3 = tail call i8 asm sideeffect "\09lock\09\09\09\0A\09xchgb\09$0,$1\09\0A", "=q,=*m,0,*m,~{memory},~{cc},~{dirflag},~{fpsr},~{flags}"(ptr elementtype(i8) %2, i8 1, ptr elementtype(i8) %2) #15, !srcloc !13
  %.not = icmp eq i8 %3, 0
  br i1 %.not, label %7, label %4

4:                                                ; preds = %0
  %5 = load ptr, ptr @ShmemLock, align 8
  %6 = tail call i32 @s_lock(ptr noundef %5, ptr noundef nonnull @.str.1, i32 noundef 610, ptr noundef nonnull @__func__.LWLockNewTrancheId) #15
  br label %7

7:                                                ; preds = %0, %4
  %8 = getelementptr inbounds i8, ptr %1, i64 -4
  %9 = load i32, ptr %8, align 4
  %10 = add i32 %9, 1
  store i32 %10, ptr %8, align 4
  tail call void asm sideeffect "", "~{memory},~{dirflag},~{fpsr},~{flags}"() #15, !srcloc !14
  %11 = load ptr, ptr @ShmemLock, align 8
  store i8 0, ptr %11, align 1
  ret i32 %9
}